target datalayout = "e-m:e-p270:32:32-p271:32:32-p272:64:64-i64:64-i128:128-f80:128-n8:16:32:64-S128"
target triple = "x86_64-pc-linux-gnu"

%union.AVRefStructOpaque = type { ptr }
%struct.RefCount = type { i64, %union.AVRefStructOpaque, ptr, ptr }
%struct.AVRefStructPool = type { i64, %union.AVRefStructOpaque, ptr, ptr, ptr, ptr, i32, i32, i32, i64, ptr, %union.pthread_mutex_t }
%union.pthread_mutex_t = type { %struct.__pthread_mutex_s }
%struct.__pthread_mutex_s = type { i32, i32, i32, i32, i32, i16, i16, %struct.__pthread_internal_list }
%struct.__pthread_internal_list = type { ptr, ptr }

; Function Attrs: nounwind uwtable
define internal ptr @get_refcount(ptr noundef %0) #0 {
  %2 = alloca ptr, align 8
  %3 = alloca ptr, align 8
  store ptr %0, ptr %2, align 8, !tbaa !10
  call void @llvm.lifetime.start.p0(i64 8, ptr %3) #7
  %4 = load ptr, ptr %2, align 8, !tbaa !10
  %5 = getelementptr inbounds i8, ptr %4, i64 -32
  store ptr %5, ptr %3, align 8, !tbaa !12
  %6 = load ptr, ptr %3, align 8, !tbaa !12
  call void @llvm.lifetime.end.p0(i64 8, ptr %3) #7
  ret ptr %6
}

; Function Attrs: nounwind uwtable
define internal ptr @get_userdata(ptr noundef %0) #0 {
  %2 = alloca ptr, align 8
  store ptr %0, ptr %2, align 8, !tbaa !10
  %3 = load ptr, ptr %2, align 8, !tbaa !10
  %4 = getelementptr inbounds nuw i8, ptr %3, i64 32
  ret ptr %4
}

; Function Attrs: nounwind uwtable
define internal void @pool_free(ptr noundef %0) #0 {
  %2 = alloca ptr, align 8
  store ptr %0, ptr %2, align 8, !tbaa !19
  %3 = load ptr, ptr %2, align 8, !tbaa !19
  %4 = getelementptr inbounds nuw %struct.AVRefStructPool, ptr %3, i32 0, i32 11
  %5 = call i32 @pthread_mutex_destroy(ptr noundef %4) #7
  %6 = load ptr, ptr %2, align 8, !tbaa !19
  %7 = getelementptr inbounds nuw %struct.AVRefStructPool, ptr %6, i32 0, i32 5
  %8 = load ptr, ptr %7, align 8, !tbaa !29
  %9 = icmp ne ptr %8, null
  br i1 %9, label %10, label %18

10:                                               ; preds = %1
  %11 = load ptr, ptr %2, align 8, !tbaa !19
  %12 = getelementptr inbounds nuw %struct.AVRefStructPool, ptr %11, i32 0, i32 5
  %13 = load ptr, ptr %12, align 8, !tbaa !29
  %14 = load ptr, ptr %2, align 8, !tbaa !19
  %15 = getelementptr inbounds nuw %struct.AVRefStructPool, ptr %14, i32 0, i32 1
  %16 = getelementptr inbounds nuw %union.AVRefStructOpaque, ptr %15, i32 0, i32 0
  %17 = load ptr, ptr %16, align 8
  call void %13(ptr %17)
  br label %18

18:                                               ; preds = %10, %1
  %19 = load ptr, ptr %2, align 8, !tbaa !19
  %20 = call ptr @get_refcount(ptr noundef %19)
  call void @av_free(ptr noundef %20)
  ret void
}

; Function Attrs: nounwind uwtable
define internal void @pool_free_entry(ptr noundef %0, ptr noundef %1) #0 {
  %3 = alloca ptr, align 8
  %4 = alloca ptr, align 8
  store ptr %0, ptr %3, align 8, !tbaa !19
  store ptr %1, ptr %4, align 8, !tbaa !12
  %5 = load ptr, ptr %3, align 8, !tbaa !19
  %6 = getelementptr inbounds nuw %struct.AVRefStructPool, ptr %5, i32 0, i32 4
  %7 = load ptr, ptr %6, align 8, !tbaa !28
  %8 = icmp ne ptr %7, null
  br i1 %8, label %9, label %19

9:                                                ; preds = %2
  %10 = load ptr, ptr %3, align 8, !tbaa !19
  %11 = getelementptr inbounds nuw %struct.AVRefStructPool, ptr %10, i32 0, i32 4
  %12 = load ptr, ptr %11, align 8, !tbaa !28
  %13 = load ptr, ptr %3, align 8, !tbaa !19
  %14 = getelementptr inbounds nuw %struct.AVRefStructPool, ptr %13, i32 0, i32 1
  %15 = load ptr, ptr %4, align 8, !tbaa !12
  %16 = call ptr @get_userdata(ptr noundef %15)
  %17 = getelementptr inbounds nuw %union.AVRefStructOpaque, ptr %14, i32 0, i32 0
  %18 = load ptr, ptr %17, align 8
  call void %12(ptr %18, ptr noundef %16)
  br label %19

19:                                               ; preds = %9, %2
  %20 = load ptr, ptr %4, align 8, !tbaa !12
  call void @av_free(ptr noundef %20)
  ret void
}

; Function Attrs: nounwind uwtable
define internal void @pool_return_entry(ptr noundef %0) #0 {
  %2 = alloca ptr, align 8
  %3 = alloca ptr, align 8
  %4 = alloca ptr, align 8
  %5 = alloca i64, align 8
  %6 = alloca i64, align 8
  store ptr %0, ptr %2, align 8, !tbaa !10
  call void @llvm.lifetime.start.p0(i64 8, ptr %3) #7
  %7 = load ptr, ptr %2, align 8, !tbaa !10
  store ptr %7, ptr %3, align 8, !tbaa !12
  call void @llvm.lifetime.start.p0(i64 8, ptr %4) #7
  %8 = load ptr, ptr %3, align 8, !tbaa !12
  %9 = getelementptr inbounds nuw %struct.RefCount, ptr %8, i32 0, i32 1
  %10 = load ptr, ptr %9, align 8, !tbaa !14
  store ptr %10, ptr %4, align 8, !tbaa !19
  %11 = load ptr, ptr %4, align 8, !tbaa !19
  %12 = getelementptr inbounds nuw %struct.AVRefStructPool, ptr %11, i32 0, i32 11
  %13 = call i32 @pthread_mutex_lock(ptr noundef %12) #7
  %14 = load ptr, ptr %4, align 8, !tbaa !19
  %15 = getelementptr inbounds nuw %struct.AVRefStructPool, ptr %14, i32 0, i32 6
  %16 = load i32, ptr %15, align 8, !tbaa !30
  %17 = icmp ne i32 %16, 0
  br i1 %17, label %27, label %18

18:                                               ; preds = %1
  %19 = load ptr, ptr %4, align 8, !tbaa !19
  %20 = getelementptr inbounds nuw %struct.AVRefStructPool, ptr %19, i32 0, i32 10
  %21 = load ptr, ptr %20, align 8, !tbaa !21
  %22 = load ptr, ptr %3, align 8, !tbaa !12
  %23 = getelementptr inbounds nuw %struct.RefCount, ptr %22, i32 0, i32 1
  store ptr %21, ptr %23, align 8, !tbaa !14
  %24 = load ptr, ptr %3, align 8, !tbaa !12
  %25 = load ptr, ptr %4, align 8, !tbaa !19
  %26 = getelementptr inbounds nuw %struct.AVRefStructPool, ptr %25, i32 0, i32 10
  store ptr %24, ptr %26, align 8, !tbaa !21
  store ptr null, ptr %3, align 8, !tbaa !12
  br label %27

27:                                               ; preds = %18, %1
  %28 = load ptr, ptr %4, align 8, !tbaa !19
  %29 = getelementptr inbounds nuw %struct.AVRefStructPool, ptr %28, i32 0, i32 11
  %30 = call i32 @pthread_mutex_unlock(ptr noundef %29) #7
  %31 = load ptr, ptr %3, align 8, !tbaa !12
  %32 = icmp ne ptr %31, null
  br i1 %32, label %33, label %36

33:                                               ; preds = %27
  %34 = load ptr, ptr %4, align 8, !tbaa !19
  %35 = load ptr, ptr %3, align 8, !tbaa !12
  call void @pool_free_entry(ptr noundef %34, ptr noundef %35)
  br label %36

36:                                               ; preds = %33, %27
  %37 = load ptr, ptr %4, align 8, !tbaa !19
  %38 = getelementptr inbounds nuw %struct.AVRefStructPool, ptr %37, i32 0, i32 9
  store i64 1, ptr %5, align 8, !tbaa !4
  %39 = load i64, ptr %5, align 8
  %40 = atomicrmw sub ptr %38, i64 %39 acq_rel, align 8
  store i64 %40, ptr %6, align 8
  %41 = load i64, ptr %6, align 8, !tbaa !4
  %42 = icmp eq i64 %41, 1
  br i1 %42, label %43, label %45

43:                                               ; preds = %36
  %44 = load ptr, ptr %4, align 8, !tbaa !19
  call void @pool_free(ptr noundef %44)
  br label %45

45:                                               ; preds = %43, %36
  call void @llvm.lifetime.end.p0(i64 8, ptr %4) #7
  call void @llvm.lifetime.end.p0(i64 8, ptr %3) #7
  ret void
}