; Function Attrs: nounwind uwtable
define internal void @pool_return_entry(ptr noundef %0) #0 {
  %2 = getelementptr inbounds nuw i8, ptr %0, i64 8
  %3 = load ptr, ptr %2, align 8, !tbaa !4
  %4 = getelementptr inbounds nuw i8, ptr %3, i64 80
  %5 = tail call i32 @pthread_mutex_lock(ptr noundef nonnull %4) #5
  %6 = getelementptr inbounds nuw i8, ptr %3, i64 48
  %7 = load i32, ptr %6, align 8, !tbaa !23
  %.not = icmp eq i32 %7, 0
  br i1 %.not, label %.thread, label %11

.thread:                                          ; preds = %1
  %8 = getelementptr inbounds nuw i8, ptr %3, i64 72
  %9 = load ptr, ptr %8, align 8, !tbaa !11
  store ptr %9, ptr %2, align 8, !tbaa !4
  store ptr %0, ptr %8, align 8, !tbaa !11
  %10 = tail call i32 @pthread_mutex_unlock(ptr noundef nonnull %4) #5
  br label %19

11:                                               ; preds = %1
  %12 = tail call i32 @pthread_mutex_unlock(ptr noundef nonnull %4) #5
  %13 = getelementptr inbounds nuw i8, ptr %3, i64 32
  %14 = load ptr, ptr %13, align 8, !tbaa !21
  %.not.i = icmp eq ptr %14, null
  br i1 %.not.i, label %pool_free_entry.exit, label %15

15:                                               ; preds = %11
  %16 = getelementptr inbounds nuw i8, ptr %3, i64 8
  %17 = getelementptr inbounds nuw i8, ptr %0, i64 32
  %18 = load ptr, ptr %16, align 8
  tail call void %14(ptr %18, ptr noundef nonnull %17) #5
  br label %pool_free_entry.exit

pool_free_entry.exit:                             ; preds = %11, %15
  tail call void @av_free(ptr noundef nonnull %0) #5
  br label %19

19:                                               ; preds = %.thread, %pool_free_entry.exit
  %20 = getelementptr inbounds nuw i8, ptr %3, i64 64
  %21 = atomicrmw sub ptr %20, i64 1 acq_rel, align 8
  %22 = icmp eq i64 %21, 1
  br i1 %22, label %23, label %31

23:                                               ; preds = %19
  %24 = tail call i32 @pthread_mutex_destroy(ptr noundef nonnull %4) #5
  %25 = getelementptr inbounds nuw i8, ptr %3, i64 40
  %26 = load ptr, ptr %25, align 8, !tbaa !22
  %.not.i16 = icmp eq ptr %26, null
  br i1 %.not.i16, label %pool_free.exit, label %27

27:                                               ; preds = %23
  %28 = getelementptr inbounds nuw i8, ptr %3, i64 8
  %29 = load ptr, ptr %28, align 8
  tail call void %26(ptr %29) #5
  br label %pool_free.exit

pool_free.exit:                                   ; preds = %23, %27
  %30 = getelementptr inbounds i8, ptr %3, i64 -32
  tail call void @av_free(ptr noundef nonnull %30) #5
  br label %31

31:                                               ; preds = %pool_free.exit, %19
  ret void
}